; Function Attrs: null_pointer_is_valid sspstrong uwtable
define internal noundef zeroext i16 @be_talker_pri(ptr noundef %0, ptr noundef %1, ptr noundef %2, i32 noundef %3, i32 noundef %4, ptr readnone captures(none) %5, i32 %6) #1 {
  %8 = load i32, ptr @hf_gsm_a_bssmap_talker_pri, align 4
  %9 = tail call ptr @proto_tree_add_item(ptr noundef %1, i32 noundef %8, ptr noundef %0, i32 noundef %3, i32 noundef 1, i32 noundef 0)
  %10 = add i32 %3, 1
  %11 = icmp ugt i32 %4, 1
  br i1 %11, label %12, label %16

12:                                               ; preds = %7
  %13 = add i32 %4, -1
  %14 = tail call ptr @proto_tree_add_expert(ptr noundef %1, ptr noundef %2, ptr noundef nonnull @ei_gsm_a_bssmap_extraneous_data, ptr noundef %0, i32 noundef %10, i32 noundef %13)
  %15 = add i32 %4, %3
  br label %16

16:                                               ; preds = %12, %7
  %.0 = phi i32 [ %15, %12 ], [ %10, %7 ]
  %17 = sub i32 %.0, %3
  %18 = trunc i32 %17 to i16
  ret i16 %18
}